Certificate:
    Data:
        Version: 3 (0x2)
        Serial Number: 0 (0x0)
    Signature Algorithm: sha256WithRSAEncryption
        Issuer: C=CN, ST=CQ, L=Chongqing, O=Neo, OU=Neo, CN=Neo/emailAddress=rocknio@gmail.com
        Validity
            Not Before: May 24 07:37:53 2018 GMT
            Not After : May 24 07:37:53 2019 GMT
        Subject: C=CN, ST=CQ, O=Neo, OU=Neo, CN=Neo/emailAddress=rocknio@gmail.com
        Subject Public Key Info:
            Public Key Algorithm: rsaEncryption
                Public-Key: (1024 bit)
                Modulus:
                    00:c8:f5:86:73:e3:33:63:ee:dd:50:7f:7a:39:07:
                    71:d0:76:43:0c:8d:ad:04:9e:2d:58:04:8d:d2:89:
                    46:1f:bd:ad:fc:fc:3f:11:e3:99:3a:f9:06:53:07:
                    d9:95:ed:e2:a4:ca:23:36:d1:c9:27:01:47:dd:84:
                    a3:0c:f2:1f:97:81:7e:67:28:c8:80:62:c6:fc:5f:
                    5a:5b:7e:12:13:df:c0:29:7e:b7:c4:fc:a6:dc:34:
                    98:35:2a:2e:44:de:63:58:20:8b:0e:cd:72:71:2f:
                    ca:0f:43:b4:b1:43:96:b2:e1:81:07:d4:23:ee:0f:
                    be:74:75:41:78:2b:52:d9:37
                Exponent: 65537 (0x10001)
        X509v3 extensions:
            X509v3 Basic Constraints: 
                CA:FALSE
            Netscape Comment: 
                OpenSSL Generated Certificate
            X509v3 Subject Key Identifier: 
                52:51:77:E9:20:77:EF:09:DF:E0:AF:A3:95:F7:8E:71:A6:35:01:19
            X509v3 Authority Key Identifier: 
                keyid:0D:2C:0A:68:1B:69:FF:93:6E:64:37:46:70:8E:B3:F3:3C:95:92:C9

    Signature Algorithm: sha256WithRSAEncryption
         01:58:05:93:d9:ca:8b:9b:4c:5a:4b:ed:ee:87:9b:cf:eb:50:
         ab:c6:3d:c6:50:5a:e3:92:10:8b:45:4e:ff:92:69:8d:38:d0:
         80:57:69:77:0e:f1:8e:58:dd:1e:e2:28:fa:cb:db:2e:5e:93:
         39:e6:ab:85:3b:af:40:49:ac:ac:e7:ab:65:28:2f:68:0e:b1:
         da:76:a8:27:b6:c7:65:b3:4f:55:71:71:cb:74:1a:99:cb:e8:
         ee:04:00:13:75:0b:46:74:1a:83:80:9b:70:8f:9d:2c:44:39:
         ae:35:b3:40:0f:e1:9f:45:ac:9a:c2:a3:9d:e5:38:d0:ad:05:
         f1:9e:b0:75:5f:83:f5:97:59:4f:e8:c3:5d:33:06:aa:97:89:
         ed:df:08:cb:62:f2:49:08:52:b7:0b:ac:06:bb:25:e2:86:ea:
         9e:22:0f:a3:44:8a:d4:ed:98:20:a7:b1:47:3e:39:28:a9:03:
         db:b9:2c:86:97:82:d1:0f:d5:8b:49:33:d1:c4:1e:71:90:ad:
         22:57:1b:b9:09:68:5b:71:44:4f:a5:2d:3b:4b:0b:a2:d2:34:
         cd:aa:52:1f:10:f1:3f:44:df:d0:40:bc:36:ba:3c:69:fc:76:
         ed:be:9f:03:73:15:a6:05:80:8c:81:c4:8c:e9:48:de:75:28:
         82:57:e7:3e
-----BEGIN CERTIFICATE-----
MIIDUjCCAjqgAwIBAgIBADANBgkqhkiG9w0BAQsFADB6MQswCQYDVQQGEwJDTjEL
MAkGA1UECAwCQ1ExEjAQBgNVBAcMCUNob25ncWluZzEMMAoGA1UECgwDTmVvMQww
CgYDVQQLDANOZW8xDDAKBgNVBAMMA05lbzEgMB4GCSqGSIb3DQEJARYRcm9ja25p
b0BnbWFpbC5jb20wHhcNMTgwNTI0MDczNzUzWhcNMTkwNTI0MDczNzUzWjBmMQsw
CQYDVQQGEwJDTjELMAkGA1UECAwCQ1ExDDAKBgNVBAoMA05lbzEMMAoGA1UECwwD
TmVvMQwwCgYDVQQDDANOZW8xIDAeBgkqhkiG9w0BCQEWEXJvY2tuaW9AZ21haWwu
Y29tMIGfMA0GCSqGSIb3DQEBAQUAA4GNADCBiQKBgQDI9YZz4zNj7t1Qf3o5B3HQ
dkMMja0Eni1YBI3SiUYfva38/D8R45k6+QZTB9mV7eKkyiM20cknAUfdhKMM8h+X
gX5nKMiAYsb8X1pbfhIT38ApfrfE/KbcNJg1Ki5E3mNYIIsOzXJxL8oPQ7SxQ5ay
4YEH1CPuD750dUF4K1LZNwIDAQABo3sweTAJBgNVHRMEAjAAMCwGCWCGSAGG+EIB
DQQfFh1PcGVuU1NMIEdlbmVyYXRlZCBDZXJ0aWZpY2F0ZTAdBgNVHQ4EFgQUUlF3
6SB37wnf4K+jlfeOcaY1ARkwHwYDVR0jBBgwFoAUDSwKaBtp/5NuZDdGcI6z8zyV
kskwDQYJKoZIhvcNAQELBQADggEBAAFYBZPZyoubTFpL7e6Hm8/rUKvGPcZQWuOS
EItFTv+SaY040IBXaXcO8Y5Y3R7iKPrL2y5ekznmq4U7r0BJrKznq2UoL2gOsdp2
qCe2x2WzT1Vxcct0GpnL6O4EABN1C0Z0GoOAm3CPnSxEOa41s0AP4Z9FrJrCo53l
ONCtBfGesHVfg/WXWU/ow10zBqqXie3fCMti8kkIUrcLrAa7JeKG6p4iD6NEitTt
mCCnsUc+OSipA9u5LIaXgtEP1YtJM9HEHnGQrSJXG7kJaFtxRE+lLTtLC6LSNM2q
Uh8Q8T9E39BAvDa6PGn8du2+nwNzFaYFgIyBxIzpSN51KIJX5z4=
-----END CERTIFICATE-----
